; Function Attrs: mustprogress uwtable
define internal void @_ZZN7rocksdb13DBWithTTLImpl5WriteERKNS_12WriteOptionsEPNS_10WriteBatchEEN7Handler7LogDataERKNS_5SliceE(ptr noundef nonnull align 8 dereferenceable(112) %this, ptr noundef nonnull align 8 dereferenceable(16) %blob) unnamed_addr #2 align 2 personality ptr @__gxx_personality_v0 {
entry:
  %agg.tmp.ensured = alloca %"class.rocksdb::Status", align 8
  %updates_ttl = getelementptr inbounds i8, ptr %this, i64 8
  call void @_ZN7rocksdb10WriteBatch10PutLogDataERKNS_5SliceE(ptr nonnull sret(%"class.rocksdb::Status") align 8 %agg.tmp.ensured, ptr noundef nonnull align 8 dereferenceable(96) %updates_ttl, ptr noundef nonnull align 8 dereferenceable(16) %blob)
  %state_.i = getelementptr inbounds i8, ptr %agg.tmp.ensured, i64 8
  %0 = load ptr, ptr %state_.i, align 8
  %cmp.not.i.i = icmp eq ptr %0, null
  br i1 %cmp.not.i.i, label %_ZN7rocksdb6StatusD2Ev.exit, label %_ZNKSt14default_deleteIA_KcEclIS0_EENSt9enable_ifIXsr14is_convertibleIPA_T_PS1_EE5valueEvE4typeEPS5_.exit.i.i

_ZNKSt14default_deleteIA_KcEclIS0_EENSt9enable_ifIXsr14is_convertibleIPA_T_PS1_EE5valueEvE4typeEPS5_.exit.i.i: ; preds = %entry
  call void @_ZdaPv(ptr noundef nonnull %0) #20
  br label %_ZN7rocksdb6StatusD2Ev.exit

_ZN7rocksdb6StatusD2Ev.exit:                      ; preds = %entry, %_ZNKSt14default_deleteIA_KcEclIS0_EENSt9enable_ifIXsr14is_convertibleIPA_T_PS1_EE5valueEvE4typeEPS5_.exit.i.i
  ret void
}